target datalayout = "e-m:e-p270:32:32-p271:32:32-p272:64:64-i64:64-i128:128-f80:128-n8:16:32:64-S128"
target triple = "x86_64-pc-linux-gnu"

; Function Attrs: mustprogress nounwind uwtable
define internal noundef i32 @_ZL19find_previous_indexiPKdi(i32 noundef %0, ptr noundef %1, i32 noundef %2) #4 {
  %4 = alloca i32, align 4
  %5 = alloca ptr, align 8
  %6 = alloca i32, align 4
  %7 = alloca i32, align 4
  store i32 %0, ptr %4, align 4, !tbaa !16
  store ptr %1, ptr %5, align 8, !tbaa !14
  store i32 %2, ptr %6, align 4, !tbaa !16
  call void @llvm.lifetime.start.p0(i64 4, ptr %7) #15
  %8 = load i32, ptr %4, align 4, !tbaa !16
  %9 = sub nsw i32 %8, 1
  store i32 %9, ptr %7, align 4, !tbaa !16
  %10 = load i32, ptr %7, align 4, !tbaa !16
  %11 = icmp eq i32 %10, -1
  br i1 %11, label %12, label %15

12:                                               ; preds = %3
  %13 = load i32, ptr %6, align 4, !tbaa !16
  %14 = sub nsw i32 %13, 1
  store i32 %14, ptr %7, align 4, !tbaa !16
  br label %15

15:                                               ; preds = %12, %3
  br label %16

16:                                               ; preds = %37, %15
  %17 = load ptr, ptr %5, align 8, !tbaa !14
  %18 = load i32, ptr %7, align 4, !tbaa !16
  %19 = sext i32 %18 to i64
  %20 = getelementptr inbounds double, ptr %17, i64 %19
  %21 = load double, ptr %20, align 8, !tbaa !12
  %22 = fcmp oeq double %21, 0x7FF0000000000000
  br i1 %22, label %23, label %27

23:                                               ; preds = %16
  %24 = load i32, ptr %7, align 4, !tbaa !16
  %25 = load i32, ptr %4, align 4, !tbaa !16
  %26 = icmp ne i32 %24, %25
  br label %27

27:                                               ; preds = %23, %16
  %28 = phi i1 [ false, %16 ], [ %26, %23 ]
  br i1 %28, label %29, label %38

29:                                               ; preds = %27
  %30 = load i32, ptr %7, align 4, !tbaa !16
  %31 = add nsw i32 %30, -1
  store i32 %31, ptr %7, align 4, !tbaa !16
  %32 = load i32, ptr %7, align 4, !tbaa !16
  %33 = icmp eq i32 %32, -1
  br i1 %33, label %34, label %37

34:                                               ; preds = %29
  %35 = load i32, ptr %6, align 4, !tbaa !16
  %36 = sub nsw i32 %35, 1
  store i32 %36, ptr %7, align 4, !tbaa !16
  br label %37

37:                                               ; preds = %34, %29
  br label %16, !llvm.loop !62

38:                                               ; preds = %27
  %39 = load i32, ptr %7, align 4, !tbaa !16
  call void @llvm.lifetime.end.p0(i64 4, ptr %7) #15
  ret i32 %39
}

; Function Attrs: mustprogress nounwind uwtable
define internal noundef double @_ZL16antimeridian_maxPKdi(ptr noundef %0, i32 noundef %1) #4 {
  %3 = alloca double, align 8
  %4 = alloca ptr, align 8
  %5 = alloca i32, align 4
  %6 = alloca double, align 8
  %7 = alloca double, align 8
  %8 = alloca i8, align 1
  %9 = alloca i32, align 4
  %10 = alloca i32, align 4
  %11 = alloca i32, align 4
  %12 = alloca double, align 8
  %13 = alloca i32, align 4
  store ptr %0, ptr %4, align 8, !tbaa !14
  store i32 %1, ptr %5, align 4, !tbaa !16
  call void @llvm.lifetime.start.p0(i64 8, ptr %6) #15
  store double 0xFFF0000000000000, ptr %6, align 8, !tbaa !12
  call void @llvm.lifetime.start.p0(i64 8, ptr %7) #15
  store double 0xFFF0000000000000, ptr %7, align 8, !tbaa !12
  call void @llvm.lifetime.start.p0(i64 1, ptr %8) #15
  store i8 0, ptr %8, align 1, !tbaa !21
  call void @llvm.lifetime.start.p0(i64 4, ptr %9) #15
  store i32 0, ptr %9, align 4, !tbaa !16
  call void @llvm.lifetime.start.p0(i64 4, ptr %10) #15
  store i32 0, ptr %10, align 4, !tbaa !16
  br label %14

14:                                               ; preds = %127, %2
  %15 = load i32, ptr %10, align 4, !tbaa !16
  %16 = load i32, ptr %5, align 4, !tbaa !16
  %17 = icmp slt i32 %15, %16
  br i1 %17, label %19, label %18

18:                                               ; preds = %14
  call void @llvm.lifetime.end.p0(i64 4, ptr %10) #15
  br label %130

19:                                               ; preds = %14
  %20 = load ptr, ptr %4, align 8, !tbaa !14
  %21 = load i32, ptr %10, align 4, !tbaa !16
  %22 = sext i32 %21 to i64
  %23 = getelementptr inbounds double, ptr %20, i64 %22
  %24 = load double, ptr %23, align 8, !tbaa !12
  %25 = fcmp oeq double %24, 0x7FF0000000000000
  br i1 %25, label %26, label %27

26:                                               ; preds = %19
  br label %127

27:                                               ; preds = %19
  call void @llvm.lifetime.start.p0(i64 4, ptr %11) #15
  %28 = load i32, ptr %10, align 4, !tbaa !16
  %29 = load ptr, ptr %4, align 8, !tbaa !14
  %30 = load i32, ptr %5, align 4, !tbaa !16
  %31 = call noundef i32 @_ZL19find_previous_indexiPKdi(i32 noundef %28, ptr noundef %29, i32 noundef %30)
  store i32 %31, ptr %11, align 4, !tbaa !16
  call void @llvm.lifetime.start.p0(i64 8, ptr %12) #15
  %32 = load ptr, ptr %4, align 8, !tbaa !14
  %33 = load i32, ptr %11, align 4, !tbaa !16
  %34 = sext i32 %33 to i64
  %35 = getelementptr inbounds double, ptr %32, i64 %34
  %36 = load double, ptr %35, align 8, !tbaa !12
  %37 = load ptr, ptr %4, align 8, !tbaa !14
  %38 = load i32, ptr %10, align 4, !tbaa !16
  %39 = sext i32 %38 to i64
  %40 = getelementptr inbounds double, ptr %37, i64 %39
  %41 = load double, ptr %40, align 8, !tbaa !12
  %42 = fsub double %36, %41
  store double %42, ptr %12, align 8, !tbaa !12
  %43 = load double, ptr %12, align 8, !tbaa !12
  %44 = fcmp oge double %43, 2.000000e+02
  br i1 %44, label %45, label %60

45:                                               ; preds = %27
  %46 = load double, ptr %12, align 8, !tbaa !12
  %47 = fcmp une double %46, 0x7FF0000000000000
  br i1 %47, label %48, label %60

48:                                               ; preds = %45
  %49 = load i32, ptr %9, align 4, !tbaa !16
  %50 = icmp eq i32 %49, 0
  br i1 %50, label %51, label %57

51:                                               ; preds = %48
  %52 = load ptr, ptr %4, align 8, !tbaa !14
  %53 = load i32, ptr %10, align 4, !tbaa !16
  %54 = sext i32 %53 to i64
  %55 = getelementptr inbounds double, ptr %52, i64 %54
  %56 = load double, ptr %55, align 8, !tbaa !12
  store double %56, ptr %6, align 8, !tbaa !12
  br label %57

57:                                               ; preds = %51, %48
  %58 = load i32, ptr %9, align 4, !tbaa !16
  %59 = add nsw i32 %58, 1
  store i32 %59, ptr %9, align 4, !tbaa !16
  store i8 1, ptr %8, align 1, !tbaa !21
  br label %75

60:                                               ; preds = %45, %27
  %61 = load double, ptr %12, align 8, !tbaa !12
  %62 = fcmp ole double %61, -2.000000e+02
  br i1 %62, label %63, label %74

63:                                               ; preds = %60
  %64 = load double, ptr %12, align 8, !tbaa !12
  %65 = fcmp une double %64, 0x7FF0000000000000
  br i1 %65, label %66, label %74

66:                                               ; preds = %63
  %67 = load i32, ptr %9, align 4, !tbaa !16
  %68 = icmp eq i32 %67, 0
  br i1 %68, label %69, label %71

69:                                               ; preds = %66
  %70 = load double, ptr %7, align 8, !tbaa !12
  store double %70, ptr %6, align 8, !tbaa !12
  br label %71

71:                                               ; preds = %69, %66
  store i8 0, ptr %8, align 1, !tbaa !21
  %72 = load i32, ptr %9, align 4, !tbaa !16
  %73 = add nsw i32 %72, 1
  store i32 %73, ptr %9, align 4, !tbaa !16
  br label %74

74:                                               ; preds = %71, %63, %60
  br label %75

75:                                               ; preds = %74, %57
  %76 = load i8, ptr %8, align 1, !tbaa !21, !range !23, !noundef !24
  %77 = trunc i8 %76 to i1
  br i1 %77, label %78, label %102

78:                                               ; preds = %75
  %79 = load ptr, ptr %4, align 8, !tbaa !14
  %80 = load i32, ptr %10, align 4, !tbaa !16
  %81 = sext i32 %80 to i64
  %82 = getelementptr inbounds double, ptr %79, i64 %81
  %83 = load double, ptr %82, align 8, !tbaa !12
  %84 = load double, ptr %6, align 8, !tbaa !12
  %85 = fcmp ogt double %83, %84
  br i1 %85, label %89, label %86

86:                                               ; preds = %78
  %87 = load double, ptr %6, align 8, !tbaa !12
  %88 = fcmp oeq double %87, 0x7FF0000000000000
  br i1 %88, label %89, label %102

89:                                               ; preds = %86, %78
  %90 = load ptr, ptr %4, align 8, !tbaa !14
  %91 = load i32, ptr %10, align 4, !tbaa !16
  %92 = sext i32 %91 to i64
  %93 = getelementptr inbounds double, ptr %90, i64 %92
  %94 = load double, ptr %93, align 8, !tbaa !12
  %95 = fcmp une double %94, 0x7FF0000000000000
  br i1 %95, label %96, label %102

96:                                               ; preds = %89
  %97 = load ptr, ptr %4, align 8, !tbaa !14
  %98 = load i32, ptr %10, align 4, !tbaa !16
  %99 = sext i32 %98 to i64
  %100 = getelementptr inbounds double, ptr %97, i64 %99
  %101 = load double, ptr %100, align 8, !tbaa !12
  store double %101, ptr %6, align 8, !tbaa !12
  br label %102

102:                                              ; preds = %96, %89, %86, %75
  %103 = load ptr, ptr %4, align 8, !tbaa !14
  %104 = load i32, ptr %10, align 4, !tbaa !16
  %105 = sext i32 %104 to i64
  %106 = getelementptr inbounds double, ptr %103, i64 %105
  %107 = load double, ptr %106, align 8, !tbaa !12
  %108 = load double, ptr %7, align 8, !tbaa !12
  %109 = fcmp ogt double %107, %108
  br i1 %109, label %113, label %110

110:                                              ; preds = %102
  %111 = load double, ptr %7, align 8, !tbaa !12
  %112 = fcmp oeq double %111, 0x7FF0000000000000
  br i1 %112, label %113, label %126

113:                                              ; preds = %110, %102
  %114 = load ptr, ptr %4, align 8, !tbaa !14
  %115 = load i32, ptr %10, align 4, !tbaa !16
  %116 = sext i32 %115 to i64
  %117 = getelementptr inbounds double, ptr %114, i64 %116
  %118 = load double, ptr %117, align 8, !tbaa !12
  %119 = fcmp une double %118, 0x7FF0000000000000
  br i1 %119, label %120, label %126

120:                                              ; preds = %113
  %121 = load ptr, ptr %4, align 8, !tbaa !14
  %122 = load i32, ptr %10, align 4, !tbaa !16
  %123 = sext i32 %122 to i64
  %124 = getelementptr inbounds double, ptr %121, i64 %123
  %125 = load double, ptr %124, align 8, !tbaa !12
  store double %125, ptr %7, align 8, !tbaa !12
  br label %126

126:                                              ; preds = %120, %113, %110
  call void @llvm.lifetime.end.p0(i64 8, ptr %12) #15
  call void @llvm.lifetime.end.p0(i64 4, ptr %11) #15
  br label %127

127:                                              ; preds = %126, %26
  %128 = load i32, ptr %10, align 4, !tbaa !16
  %129 = add nsw i32 %128, 1
  store i32 %129, ptr %10, align 4, !tbaa !16
  br label %14, !llvm.loop !41

130:                                              ; preds = %18
  %131 = load i32, ptr %9, align 4, !tbaa !16
  %132 = icmp eq i32 %131, 2
  br i1 %132, label %133, label %135

133:                                              ; preds = %130
  %134 = load double, ptr %6, align 8, !tbaa !12
  store double %134, ptr %3, align 8
  store i32 1, ptr %13, align 4
  br label %142

135:                                              ; preds = %130
  %136 = load i32, ptr %9, align 4, !tbaa !16
  %137 = icmp eq i32 %136, 4
  br i1 %137, label %138, label %139

138:                                              ; preds = %135
  store double 1.800000e+02, ptr %3, align 8
  store i32 1, ptr %13, align 4
  br label %142

139:                                              ; preds = %135
  br label %140

140:                                              ; preds = %139
  %141 = load double, ptr %7, align 8, !tbaa !12
  store double %141, ptr %3, align 8
  store i32 1, ptr %13, align 4
  br label %142

142:                                              ; preds = %140, %138, %133
  call void @llvm.lifetime.end.p0(i64 4, ptr %9) #15
  call void @llvm.lifetime.end.p0(i64 1, ptr %8) #15
  call void @llvm.lifetime.end.p0(i64 8, ptr %7) #15
  call void @llvm.lifetime.end.p0(i64 8, ptr %6) #15
  %143 = load double, ptr %3, align 8
  ret double %143
}