; Function Attrs: mustprogress nofree norecurse nosync nounwind willreturn memory(argmem: read) uwtable
define internal fastcc noundef double @_ZL16antimeridian_maxPKdi(ptr noundef readonly captures(none) %0, i32 noundef range(i32 4, 120013) %1) unnamed_addr #8 {
  %wide.trip.count = zext nneg i32 %1 to i64
  br label %4

3:                                                ; preds = %44
  switch i32 %.154, label %46 [
    i32 2, label %47
    i32 4, label %45
  ]

4:                                                ; preds = %2, %44
  %indvars.iv = phi i64 [ 0, %2 ], [ %indvars.iv.next, %44 ]
  %.05184 = phi double [ 0xFFF0000000000000, %2 ], [ %.1, %44 ]
  %.05381 = phi i32 [ 0, %2 ], [ %.154, %44 ]
  %.05680 = phi i1 [ false, %2 ], [ %.157, %44 ]
  %.05979 = phi double [ 0xFFF0000000000000, %2 ], [ %.160, %44 ]
  %5 = getelementptr inbounds nuw double, ptr %0, i64 %indvars.iv
  %6 = load double, ptr %5, align 8, !tbaa !3
  %7 = fcmp oeq double %6, 0x7FF0000000000000
  br i1 %7, label %44, label %8

8:                                                ; preds = %4
  %9 = icmp eq i64 %indvars.iv, 0
  %10 = trunc nuw nsw i64 %indvars.iv to i32
  %spec.select.i = select i1 %9, i32 %1, i32 %10
  %.113.i = add nsw i32 %spec.select.i, -1
  %11 = sext i32 %.113.i to i64
  %12 = getelementptr inbounds double, ptr %0, i64 %11
  %13 = load double, ptr %12, align 8, !tbaa !3
  %14 = fcmp oeq double %13, 0x7FF0000000000000
  %15 = zext i32 %.113.i to i64
  %16 = icmp ne i64 %indvars.iv, %15
  %17 = and i1 %16, %14
  br i1 %17, label %.lr.ph.i, label %_ZL19find_previous_indexiPKdi.exit

.lr.ph.i:                                         ; preds = %8, %.lr.ph.i
  %.114.i = phi i32 [ %.1.i, %.lr.ph.i ], [ %.113.i, %8 ]
  %18 = icmp eq i32 %.114.i, 0
  %spec.select12.i = select i1 %18, i32 %1, i32 %.114.i
  %.1.i = add nsw i32 %spec.select12.i, -1
  %19 = sext i32 %.1.i to i64
  %20 = getelementptr inbounds double, ptr %0, i64 %19
  %21 = load double, ptr %20, align 8, !tbaa !3
  %22 = fcmp oeq double %21, 0x7FF0000000000000
  %23 = zext i32 %.1.i to i64
  %24 = icmp ne i64 %indvars.iv, %23
  %25 = and i1 %22, %24
  br i1 %25, label %.lr.ph.i, label %_ZL19find_previous_indexiPKdi.exit, !llvm.loop !19

_ZL19find_previous_indexiPKdi.exit:               ; preds = %.lr.ph.i, %8
  %26 = phi double [ %13, %8 ], [ %21, %.lr.ph.i ]
  %27 = fsub double %26, %6
  %28 = fcmp oge double %27, 2.000000e+02
  %29 = fcmp une double %27, 0x7FF0000000000000
  %or.cond = and i1 %28, %29
  br i1 %or.cond, label %.thread, label %32

.thread:                                          ; preds = %_ZL19find_previous_indexiPKdi.exit
  %30 = icmp eq i32 %.05381, 0
  %.2 = select i1 %30, double %6, double %.05184
  %31 = add nsw i32 %.05381, 1
  br label %37

32:                                               ; preds = %_ZL19find_previous_indexiPKdi.exit
  %33 = fcmp ole double %27, -2.000000e+02
  %or.cond3 = and i1 %33, %29
  br i1 %or.cond3, label %.thread75, label %36

.thread75:                                        ; preds = %32
  %34 = icmp eq i32 %.05381, 0
  %.4 = select i1 %34, double %.05979, double %.05184
  %35 = add nsw i32 %.05381, 1
  br label %41

36:                                               ; preds = %32
  br i1 %.05680, label %37, label %41

37:                                               ; preds = %.thread, %36
  %.374 = phi double [ %.2, %.thread ], [ %.05184, %36 ]
  %.25573 = phi i32 [ %31, %.thread ], [ %.05381, %36 ]
  %38 = fcmp ogt double %6, %.374
  %39 = fcmp oeq double %.374, 0x7FF0000000000000
  %or.cond5 = or i1 %38, %39
  br i1 %or.cond5, label %40, label %41

40:                                               ; preds = %37
  br label %41

41:                                               ; preds = %.thread75, %37, %40, %36
  %.25572 = phi i32 [ %.25573, %40 ], [ %.25573, %37 ], [ %.05381, %36 ], [ %35, %.thread75 ]
  %.25870 = phi i1 [ true, %40 ], [ true, %37 ], [ false, %36 ], [ false, %.thread75 ]
  %.5 = phi double [ %6, %40 ], [ %.374, %37 ], [ %.05184, %36 ], [ %.4, %.thread75 ]
  %42 = fcmp ogt double %6, %.05979
  %43 = fcmp oeq double %.05979, 0x7FF0000000000000
  %or.cond7 = or i1 %43, %42
  %.261 = select i1 %or.cond7, double %6, double %.05979
  br label %44

44:                                               ; preds = %4, %41
  %.160 = phi double [ %.05979, %4 ], [ %.261, %41 ]
  %.157 = phi i1 [ %.05680, %4 ], [ %.25870, %41 ]
  %.154 = phi i32 [ %.05381, %4 ], [ %.25572, %41 ]
  %.1 = phi double [ %.05184, %4 ], [ %.5, %41 ]
  %indvars.iv.next = add nuw nsw i64 %indvars.iv, 1
  %exitcond.not = icmp eq i64 %indvars.iv.next, %wide.trip.count
  br i1 %exitcond.not, label %3, label %4, !llvm.loop !21

45:                                               ; preds = %3
  br label %47

46:                                               ; preds = %3
  br label %47

47:                                               ; preds = %3, %46, %45
  %.0 = phi double [ 1.800000e+02, %45 ], [ %.160, %46 ], [ %.1, %3 ]
  ret double %.0
}